; Function Attrs: mustprogress uwtable
define dso_local void @_ZNK26cmExportBuildFileGenerator10GetTargetsERSt6vectorINS_12TargetExportESaIS1_EE(ptr noundef nonnull align 8 dereferenceable(440) %0, ptr noundef nonnull align 8 dereferenceable(24) %1) local_unnamed_addr #3 align 2 {
  %3 = getelementptr inbounds i8, ptr %0, i64 368
  %4 = load ptr, ptr %3, align 8
  %.not = icmp eq ptr %4, null
  br i1 %.not, label %18, label %5

5:                                                ; preds = %2
  %6 = load ptr, ptr %4, align 8
  %7 = getelementptr inbounds i8, ptr %4, i64 8
  %8 = load ptr, ptr %7, align 8
  %.not1213 = icmp eq ptr %6, %8
  br i1 %.not1213, label %.loopexit, label %.lr.ph

.lr.ph:                                           ; preds = %5, %16
  %.sroa.09.014 = phi ptr [ %17, %16 ], [ %6, %5 ]
  %9 = load ptr, ptr %.sroa.09.014, align 8
  %10 = getelementptr inbounds i8, ptr %9, i64 152
  %11 = load i8, ptr %10, align 8
  %12 = and i8 %11, 1
  %.not8 = icmp eq i8 %12, 0
  br i1 %.not8, label %13, label %16

13:                                               ; preds = %.lr.ph
  %14 = getelementptr inbounds i8, ptr %9, i64 160
  %15 = tail call noundef nonnull align 8 dereferenceable(64) ptr @_ZNSt6vectorIN26cmExportBuildFileGenerator12TargetExportESaIS1_EE12emplace_backIJRNSt7__cxx1112basic_stringIcSt11char_traitsIcESaIcEEESB_EEERS1_DpOT_(ptr noundef nonnull align 8 dereferenceable(24) %1, ptr noundef nonnull align 8 dereferenceable(32) %9, ptr noundef nonnull align 8 dereferenceable(32) %14)
  br label %16

16:                                               ; preds = %.lr.ph, %13
  %17 = getelementptr inbounds i8, ptr %.sroa.09.014, i64 8
  %.not12 = icmp eq ptr %17, %8
  br i1 %.not12, label %.loopexit, label %.lr.ph

18:                                               ; preds = %2
  %19 = getelementptr inbounds i8, ptr %0, i64 344
  %20 = tail call noundef nonnull align 8 dereferenceable(24) ptr @_ZNSt6vectorIN26cmExportBuildFileGenerator12TargetExportESaIS1_EEaSERKS3_(ptr noundef nonnull align 8 dereferenceable(24) %1, ptr noundef nonnull align 8 dereferenceable(24) %19)
  br label %.loopexit

.loopexit:                                        ; preds = %16, %5, %18
  ret void
}